target datalayout = "e-m:e-p270:32:32-p271:32:32-p272:64:64-i64:64-i128:128-f80:128-n8:16:32:64-S128"
target triple = "x86_64-unknown-linux-gnu"

%struct.DOECap = type { ptr, i16, %struct.anon, %struct.anon.0, %struct.anon.1, ptr, ptr, i32, i32, i32, ptr, i16 }
%struct.anon = type { i8, i16 }
%struct.anon.0 = type { i8, i8, i8 }
%struct.anon.1 = type { i8, i8, i8, i8 }
%struct.anon.2 = type { i8, [3 x i8] }
%struct.anon.3 = type { i16, [2 x i8] }
%struct.anon.4 = type { i8, [3 x i8] }
%struct.anon.5 = type { i8, [3 x i8] }
%struct.anon.6 = type { i8, [3 x i8] }
%struct.anon.7 = type { i8, [3 x i8] }
%struct.anon.8 = type { i8, [3 x i8] }

@.str.2 = private unnamed_addr constant [49 x i8] c"start >= 0 && length > 0 && length <= 32 - start\00", align 1
@.str.3 = private unnamed_addr constant [100 x i8] c"/home/dtcxzyw/WorkSpace/Projects/compilers/llvm-opt-benchmark/bench/qemu/qemu/include/qemu/bitops.h\00", align 1
@__PRETTY_FUNCTION__.deposit32 = private unnamed_addr constant [49 x i8] c"uint32_t deposit32(uint32_t, int, int, uint32_t)\00", align 1
@__PRETTY_FUNCTION__.extract32 = private unnamed_addr constant [39 x i8] c"uint32_t extract32(uint32_t, int, int)\00", align 1

; Function Attrs: nounwind sspstrong uwtable
define internal i64 @range_get_last(i64 noundef %offset, i64 noundef %len) #0 {
entry:
  %offset.addr = alloca i64, align 8
  %len.addr = alloca i64, align 8
  store i64 %offset, ptr %offset.addr, align 8
  store i64 %len, ptr %len.addr, align 8
  %0 = load i64, ptr %offset.addr, align 8
  %1 = load i64, ptr %len.addr, align 8
  %add = add i64 %0, %1
  %sub = sub i64 %add, 1
  ret i64 %sub
}

; Function Attrs: nounwind sspstrong uwtable
define internal i32 @extract32(i32 noundef %value, i32 noundef %start, i32 noundef %length) #0 {
entry:
  %value.addr = alloca i32, align 4
  %start.addr = alloca i32, align 4
  %length.addr = alloca i32, align 4
  store i32 %value, ptr %value.addr, align 4
  store i32 %start, ptr %start.addr, align 4
  store i32 %length, ptr %length.addr, align 4
  %0 = load i32, ptr %start.addr, align 4
  %cmp = icmp sge i32 %0, 0
  br i1 %cmp, label %land.lhs.true, label %if.else

land.lhs.true:                                    ; preds = %entry
  %1 = load i32, ptr %length.addr, align 4
  %cmp1 = icmp sgt i32 %1, 0
  br i1 %cmp1, label %land.lhs.true2, label %if.else

land.lhs.true2:                                   ; preds = %land.lhs.true
  %2 = load i32, ptr %length.addr, align 4
  %3 = load i32, ptr %start.addr, align 4
  %sub = sub i32 32, %3
  %cmp3 = icmp sle i32 %2, %sub
  br i1 %cmp3, label %if.then, label %if.else

if.then:                                          ; preds = %land.lhs.true2
  br label %if.end

if.else:                                          ; preds = %land.lhs.true2, %land.lhs.true, %entry
  call void @__assert_fail(ptr noundef @.str.2, ptr noundef @.str.3, i32 noundef 338, ptr noundef @__PRETTY_FUNCTION__.extract32) #7
  unreachable

if.end:                                           ; preds = %if.then
  %4 = load i32, ptr %value.addr, align 4
  %5 = load i32, ptr %start.addr, align 4
  %shr = lshr i32 %4, %5
  %6 = load i32, ptr %length.addr, align 4
  %sub4 = sub i32 32, %6
  %shr5 = lshr i32 -1, %sub4
  %and = and i32 %shr, %shr5
  ret i32 %and
}

; Function Attrs: nounwind sspstrong uwtable
define internal i32 @deposit32(i32 noundef %value, i32 noundef %start, i32 noundef %length, i32 noundef %fieldval) #0 {
entry:
  %value.addr = alloca i32, align 4
  %start.addr = alloca i32, align 4
  %length.addr = alloca i32, align 4
  %fieldval.addr = alloca i32, align 4
  %mask = alloca i32, align 4
  store i32 %value, ptr %value.addr, align 4
  store i32 %start, ptr %start.addr, align 4
  store i32 %length, ptr %length.addr, align 4
  store i32 %fieldval, ptr %fieldval.addr, align 4
  %0 = load i32, ptr %start.addr, align 4
  %cmp = icmp sge i32 %0, 0
  br i1 %cmp, label %land.lhs.true, label %if.else

land.lhs.true:                                    ; preds = %entry
  %1 = load i32, ptr %length.addr, align 4
  %cmp1 = icmp sgt i32 %1, 0
  br i1 %cmp1, label %land.lhs.true2, label %if.else

land.lhs.true2:                                   ; preds = %land.lhs.true
  %2 = load i32, ptr %length.addr, align 4
  %3 = load i32, ptr %start.addr, align 4
  %sub = sub i32 32, %3
  %cmp3 = icmp sle i32 %2, %sub
  br i1 %cmp3, label %if.then, label %if.else

if.then:                                          ; preds = %land.lhs.true2
  br label %if.end

if.else:                                          ; preds = %land.lhs.true2, %land.lhs.true, %entry
  call void @__assert_fail(ptr noundef @.str.2, ptr noundef @.str.3, i32 noundef 470, ptr noundef @__PRETTY_FUNCTION__.deposit32) #7
  unreachable

if.end:                                           ; preds = %if.then
  %4 = load i32, ptr %length.addr, align 4
  %sub4 = sub i32 32, %4
  %shr = lshr i32 -1, %sub4
  %5 = load i32, ptr %start.addr, align 4
  %shl = shl i32 %shr, %5
  store i32 %shl, ptr %mask, align 4
  %6 = load i32, ptr %value.addr, align 4
  %7 = load i32, ptr %mask, align 4
  %not = xor i32 %7, -1
  %and = and i32 %6, %not
  %8 = load i32, ptr %fieldval.addr, align 4
  %9 = load i32, ptr %start.addr, align 4
  %shl5 = shl i32 %8, %9
  %10 = load i32, ptr %mask, align 4
  %and6 = and i32 %shl5, %10
  %or = or i32 %and, %and6
  ret i32 %or
}

; Function Attrs: nounwind sspstrong uwtable
define internal i32 @range_covers_byte(i64 noundef %offset, i64 noundef %len, i64 noundef %byte) #0 {
entry:
  %offset.addr = alloca i64, align 8
  %len.addr = alloca i64, align 8
  %byte.addr = alloca i64, align 8
  store i64 %offset, ptr %offset.addr, align 8
  store i64 %len, ptr %len.addr, align 8
  store i64 %byte, ptr %byte.addr, align 8
  %0 = load i64, ptr %offset.addr, align 8
  %1 = load i64, ptr %byte.addr, align 8
  %cmp = icmp ule i64 %0, %1
  br i1 %cmp, label %land.rhs, label %land.end

land.rhs:                                         ; preds = %entry
  %2 = load i64, ptr %byte.addr, align 8
  %3 = load i64, ptr %offset.addr, align 8
  %4 = load i64, ptr %len.addr, align 8
  %call = call i64 @range_get_last(i64 noundef %3, i64 noundef %4)
  %cmp1 = icmp ule i64 %2, %call
  br label %land.end

land.end:                                         ; preds = %land.rhs, %entry
  %5 = phi i1 [ false, %entry ], [ %cmp1, %land.rhs ]
  %land.ext = zext i1 %5 to i32
  ret i32 %land.ext
}

; Function Attrs: nounwind sspstrong uwtable
define dso_local zeroext i1 @pcie_doe_read_config(ptr noundef %doe_cap, i32 noundef %addr, i32 noundef %size, ptr noundef %buf) #0 {
entry:
  %retval = alloca i1, align 1
  %doe_cap.addr = alloca ptr, align 8
  %addr.addr = alloca i32, align 4
  %size.addr = alloca i32, align 4
  %buf.addr = alloca ptr, align 8
  %shift = alloca i32, align 4
  %doe_offset = alloca i16, align 2
  %_v = alloca %struct.anon.2, align 4
  %_d = alloca i32, align 4
  %tmp = alloca i32, align 4
  %_v13 = alloca %struct.anon.3, align 4
  %_d20 = alloca i32, align 4
  %tmp25 = alloca i32, align 4
  %_v30 = alloca %struct.anon.4, align 4
  %_d38 = alloca i32, align 4
  %tmp43 = alloca i32, align 4
  %_v49 = alloca %struct.anon.5, align 4
  %_d56 = alloca i32, align 4
  %tmp61 = alloca i32, align 4
  %_v62 = alloca %struct.anon.6, align 4
  %_d71 = alloca i32, align 4
  %tmp76 = alloca i32, align 4
  %_v77 = alloca %struct.anon.7, align 4
  %_d85 = alloca i32, align 4
  %tmp90 = alloca i32, align 4
  %_v91 = alloca %struct.anon.8, align 4
  %_d99 = alloca i32, align 4
  %tmp104 = alloca i32, align 4
  store ptr %doe_cap, ptr %doe_cap.addr, align 8
  store i32 %addr, ptr %addr.addr, align 4
  store i32 %size, ptr %size.addr, align 4
  store ptr %buf, ptr %buf.addr, align 8
  %0 = load ptr, ptr %doe_cap.addr, align 8
  %offset = getelementptr inbounds %struct.DOECap, ptr %0, i32 0, i32 1
  %1 = load i16, ptr %offset, align 8
  store i16 %1, ptr %doe_offset, align 2
  %2 = load i16, ptr %doe_offset, align 2
  %conv = zext i16 %2 to i32
  %add = add i32 %conv, 4
  %conv1 = sext i32 %add to i64
  %3 = load i32, ptr %addr.addr, align 4
  %conv2 = zext i32 %3 to i64
  %call = call i32 @range_covers_byte(i64 noundef %conv1, i64 noundef 20, i64 noundef %conv2)
  %tobool = icmp ne i32 %call, 0
  br i1 %tobool, label %if.end, label %if.then

if.then:                                          ; preds = %entry
  store i1 false, ptr %retval, align 1
  br label %return

if.end:                                           ; preds = %entry
  %4 = load i16, ptr %doe_offset, align 2
  %conv3 = zext i16 %4 to i32
  %5 = load i32, ptr %addr.addr, align 4
  %sub = sub i32 %5, %conv3
  store i32 %sub, ptr %addr.addr, align 4
  %6 = load ptr, ptr %buf.addr, align 8
  store i32 0, ptr %6, align 4
  %7 = load i32, ptr %addr.addr, align 4
  %conv4 = zext i32 %7 to i64
  %call5 = call i32 @range_covers_byte(i64 noundef 4, i64 noundef 4, i64 noundef %conv4)
  %tobool6 = icmp ne i32 %call5, 0
  br i1 %tobool6, label %if.then7, label %if.else

if.then7:                                         ; preds = %if.end
  %8 = load ptr, ptr %doe_cap.addr, align 8
  %cap = getelementptr inbounds %struct.DOECap, ptr %8, i32 0, i32 2
  %intr = getelementptr inbounds %struct.anon, ptr %cap, i32 0, i32 0
  %9 = load i8, ptr %intr, align 2
  %tobool8 = trunc i8 %9 to i1
  %conv9 = zext i1 %tobool8 to i32
  %10 = trunc i32 %conv9 to i8
  %bf.load = load i8, ptr %_v, align 4
  %bf.value = and i8 %10, 1
  %bf.clear = and i8 %bf.load, -2
  %bf.set = or i8 %bf.clear, %bf.value
  store i8 %bf.set, ptr %_v, align 4
  %11 = load ptr, ptr %buf.addr, align 8
  %12 = load i32, ptr %11, align 4
  %bf.load10 = load i8, ptr %_v, align 4
  %bf.clear11 = and i8 %bf.load10, 1
  %bf.cast = zext i8 %bf.clear11 to i32
  %call12 = call i32 @deposit32(i32 noundef %12, i32 noundef 0, i32 noundef 1, i32 noundef %bf.cast)
  store i32 %call12, ptr %_d, align 4
  %13 = load i32, ptr %_d, align 4
  store i32 %13, ptr %tmp, align 4
  %14 = load i32, ptr %tmp, align 4
  %15 = load ptr, ptr %buf.addr, align 8
  store i32 %14, ptr %15, align 4
  %16 = load ptr, ptr %doe_cap.addr, align 8
  %cap14 = getelementptr inbounds %struct.DOECap, ptr %16, i32 0, i32 2
  %vec = getelementptr inbounds %struct.anon, ptr %cap14, i32 0, i32 1
  %17 = load i16, ptr %vec, align 2
  %conv15 = zext i16 %17 to i32
  %18 = trunc i32 %conv15 to i16
  %bf.load16 = load i16, ptr %_v13, align 4
  %bf.value17 = and i16 %18, 2047
  %bf.clear18 = and i16 %bf.load16, -2048
  %bf.set19 = or i16 %bf.clear18, %bf.value17
  store i16 %bf.set19, ptr %_v13, align 4
  %19 = load ptr, ptr %buf.addr, align 8
  %20 = load i32, ptr %19, align 4
  %bf.load21 = load i16, ptr %_v13, align 4
  %bf.clear22 = and i16 %bf.load21, 2047
  %bf.cast23 = zext i16 %bf.clear22 to i32
  %call24 = call i32 @deposit32(i32 noundef %20, i32 noundef 1, i32 noundef 11, i32 noundef %bf.cast23)
  store i32 %call24, ptr %_d20, align 4
  %21 = load i32, ptr %_d20, align 4
  store i32 %21, ptr %tmp25, align 4
  %22 = load i32, ptr %tmp25, align 4
  %23 = load ptr, ptr %buf.addr, align 8
  store i32 %22, ptr %23, align 4
  br label %if.end123

if.else:                                          ; preds = %if.end
  %24 = load i32, ptr %addr.addr, align 4
  %conv26 = zext i32 %24 to i64
  %call27 = call i32 @range_covers_byte(i64 noundef 8, i64 noundef 4, i64 noundef %conv26)
  %tobool28 = icmp ne i32 %call27, 0
  br i1 %tobool28, label %if.then29, label %if.else44

if.then29:                                        ; preds = %if.else
  %25 = load ptr, ptr %doe_cap.addr, align 8
  %ctrl = getelementptr inbounds %struct.DOECap, ptr %25, i32 0, i32 3
  %intr31 = getelementptr inbounds %struct.anon.0, ptr %ctrl, i32 0, i32 1
  %26 = load i8, ptr %intr31, align 1
  %tobool32 = trunc i8 %26 to i1
  %conv33 = zext i1 %tobool32 to i32
  %27 = trunc i32 %conv33 to i8
  %bf.load34 = load i8, ptr %_v30, align 4
  %bf.value35 = and i8 %27, 1
  %bf.clear36 = and i8 %bf.load34, -2
  %bf.set37 = or i8 %bf.clear36, %bf.value35
  store i8 %bf.set37, ptr %_v30, align 4
  %28 = load ptr, ptr %buf.addr, align 8
  %29 = load i32, ptr %28, align 4
  %bf.load39 = load i8, ptr %_v30, align 4
  %bf.clear40 = and i8 %bf.load39, 1
  %bf.cast41 = zext i8 %bf.clear40 to i32
  %call42 = call i32 @deposit32(i32 noundef %29, i32 noundef 1, i32 noundef 1, i32 noundef %bf.cast41)
  store i32 %call42, ptr %_d38, align 4
  %30 = load i32, ptr %_d38, align 4
  store i32 %30, ptr %tmp43, align 4
  %31 = load i32, ptr %tmp43, align 4
  %32 = load ptr, ptr %buf.addr, align 8
  store i32 %31, ptr %32, align 4
  br label %if.end122

if.else44:                                        ; preds = %if.else
  %33 = load i32, ptr %addr.addr, align 4
  %conv45 = zext i32 %33 to i64
  %call46 = call i32 @range_covers_byte(i64 noundef 12, i64 noundef 4, i64 noundef %conv45)
  %tobool47 = icmp ne i32 %call46, 0
  br i1 %tobool47, label %if.then48, label %if.else105

if.then48:                                        ; preds = %if.else44
  %34 = load ptr, ptr %doe_cap.addr, align 8
  %status = getelementptr inbounds %struct.DOECap, ptr %34, i32 0, i32 4
  %busy = getelementptr inbounds %struct.anon.1, ptr %status, i32 0, i32 0
  %35 = load i8, ptr %busy, align 1
  %tobool50 = trunc i8 %35 to i1
  %conv51 = zext i1 %tobool50 to i32
  %36 = trunc i32 %conv51 to i8
  %bf.load52 = load i8, ptr %_v49, align 4
  %bf.value53 = and i8 %36, 1
  %bf.clear54 = and i8 %bf.load52, -2
  %bf.set55 = or i8 %bf.clear54, %bf.value53
  store i8 %bf.set55, ptr %_v49, align 4
  %37 = load ptr, ptr %buf.addr, align 8
  %38 = load i32, ptr %37, align 4
  %bf.load57 = load i8, ptr %_v49, align 4
  %bf.clear58 = and i8 %bf.load57, 1
  %bf.cast59 = zext i8 %bf.clear58 to i32
  %call60 = call i32 @deposit32(i32 noundef %38, i32 noundef 0, i32 noundef 1, i32 noundef %bf.cast59)
  store i32 %call60, ptr %_d56, align 4
  %39 = load i32, ptr %_d56, align 4
  store i32 %39, ptr %tmp61, align 4
  %40 = load i32, ptr %tmp61, align 4
  %41 = load ptr, ptr %buf.addr, align 8
  store i32 %40, ptr %41, align 4
  %42 = load ptr, ptr %doe_cap.addr, align 8
  %status63 = getelementptr inbounds %struct.DOECap, ptr %42, i32 0, i32 4
  %intr64 = getelementptr inbounds %struct.anon.1, ptr %status63, i32 0, i32 1
  %43 = load i8, ptr %intr64, align 1
  %tobool65 = trunc i8 %43 to i1
  %conv66 = zext i1 %tobool65 to i32
  %44 = trunc i32 %conv66 to i8
  %bf.load67 = load i8, ptr %_v62, align 4
  %bf.value68 = and i8 %44, 1
  %bf.clear69 = and i8 %bf.load67, -2
  %bf.set70 = or i8 %bf.clear69, %bf.value68
  store i8 %bf.set70, ptr %_v62, align 4
  %45 = load ptr, ptr %buf.addr, align 8
  %46 = load i32, ptr %45, align 4
  %bf.load72 = load i8, ptr %_v62, align 4
  %bf.clear73 = and i8 %bf.load72, 1
  %bf.cast74 = zext i8 %bf.clear73 to i32
  %call75 = call i32 @deposit32(i32 noundef %46, i32 noundef 1, i32 noundef 1, i32 noundef %bf.cast74)
  store i32 %call75, ptr %_d71, align 4
  %47 = load i32, ptr %_d71, align 4
  store i32 %47, ptr %tmp76, align 4
  %48 = load i32, ptr %tmp76, align 4
  %49 = load ptr, ptr %buf.addr, align 8
  store i32 %48, ptr %49, align 4
  %50 = load ptr, ptr %doe_cap.addr, align 8
  %status78 = getelementptr inbounds %struct.DOECap, ptr %50, i32 0, i32 4
  %error = getelementptr inbounds %struct.anon.1, ptr %status78, i32 0, i32 2
  %51 = load i8, ptr %error, align 1
  %tobool79 = trunc i8 %51 to i1
  %conv80 = zext i1 %tobool79 to i32
  %52 = trunc i32 %conv80 to i8
  %bf.load81 = load i8, ptr %_v77, align 4
  %bf.value82 = and i8 %52, 1
  %bf.clear83 = and i8 %bf.load81, -2
  %bf.set84 = or i8 %bf.clear83, %bf.value82
  store i8 %bf.set84, ptr %_v77, align 4
  %53 = load ptr, ptr %buf.addr, align 8
  %54 = load i32, ptr %53, align 4
  %bf.load86 = load i8, ptr %_v77, align 4
  %bf.clear87 = and i8 %bf.load86, 1
  %bf.cast88 = zext i8 %bf.clear87 to i32
  %call89 = call i32 @deposit32(i32 noundef %54, i32 noundef 2, i32 noundef 1, i32 noundef %bf.cast88)
  store i32 %call89, ptr %_d85, align 4
  %55 = load i32, ptr %_d85, align 4
  store i32 %55, ptr %tmp90, align 4
  %56 = load i32, ptr %tmp90, align 4
  %57 = load ptr, ptr %buf.addr, align 8
  store i32 %56, ptr %57, align 4
  %58 = load ptr, ptr %doe_cap.addr, align 8
  %status92 = getelementptr inbounds %struct.DOECap, ptr %58, i32 0, i32 4
  %ready = getelementptr inbounds %struct.anon.1, ptr %status92, i32 0, i32 3
  %59 = load i8, ptr %ready, align 1
  %tobool93 = trunc i8 %59 to i1
  %conv94 = zext i1 %tobool93 to i32
  %60 = trunc i32 %conv94 to i8
  %bf.load95 = load i8, ptr %_v91, align 4
  %bf.value96 = and i8 %60, 1
  %bf.clear97 = and i8 %bf.load95, -2
  %bf.set98 = or i8 %bf.clear97, %bf.value96
  store i8 %bf.set98, ptr %_v91, align 4
  %61 = load ptr, ptr %buf.addr, align 8
  %62 = load i32, ptr %61, align 4
  %bf.load100 = load i8, ptr %_v91, align 4
  %bf.clear101 = and i8 %bf.load100, 1
  %bf.cast102 = zext i8 %bf.clear101 to i32
  %call103 = call i32 @deposit32(i32 noundef %62, i32 noundef 31, i32 noundef 1, i32 noundef %bf.cast102)
  store i32 %call103, ptr %_d99, align 4
  %63 = load i32, ptr %_d99, align 4
  store i32 %63, ptr %tmp104, align 4
  %64 = load i32, ptr %tmp104, align 4
  %65 = load ptr, ptr %buf.addr, align 8
  store i32 %64, ptr %65, align 4
  br label %if.end121

if.else105:                                       ; preds = %if.else44
  %66 = load i32, ptr %addr.addr, align 4
  %cmp = icmp eq i32 %66, 20
  br i1 %cmp, label %land.lhs.true, label %if.end120

land.lhs.true:                                    ; preds = %if.else105
  %67 = load i32, ptr %size.addr, align 4
  %cmp107 = icmp eq i32 %67, 4
  br i1 %cmp107, label %if.then109, label %if.end120

if.then109:                                       ; preds = %land.lhs.true
  %68 = load ptr, ptr %doe_cap.addr, align 8
  %status110 = getelementptr inbounds %struct.DOECap, ptr %68, i32 0, i32 4
  %ready111 = getelementptr inbounds %struct.anon.1, ptr %status110, i32 0, i32 3
  %69 = load i8, ptr %ready111, align 1
  %tobool112 = trunc i8 %69 to i1
  br i1 %tobool112, label %land.lhs.true114, label %if.end119

land.lhs.true114:                                 ; preds = %if.then109
  %70 = load ptr, ptr %doe_cap.addr, align 8
  %status115 = getelementptr inbounds %struct.DOECap, ptr %70, i32 0, i32 4
  %error116 = getelementptr inbounds %struct.anon.1, ptr %status115, i32 0, i32 2
  %71 = load i8, ptr %error116, align 1
  %tobool117 = trunc i8 %71 to i1
  br i1 %tobool117, label %if.end119, label %if.then118

if.then118:                                       ; preds = %land.lhs.true114
  %72 = load ptr, ptr %doe_cap.addr, align 8
  %read_mbox = getelementptr inbounds %struct.DOECap, ptr %72, i32 0, i32 6
  %73 = load ptr, ptr %read_mbox, align 8
  %74 = load ptr, ptr %doe_cap.addr, align 8
  %read_mbox_idx = getelementptr inbounds %struct.DOECap, ptr %74, i32 0, i32 7
  %75 = load i32, ptr %read_mbox_idx, align 8
  %idxprom = zext i32 %75 to i64
  %arrayidx = getelementptr i32, ptr %73, i64 %idxprom
  %76 = load i32, ptr %arrayidx, align 4
  %77 = load ptr, ptr %buf.addr, align 8
  store i32 %76, ptr %77, align 4
  br label %if.end119

if.end119:                                        ; preds = %if.then118, %land.lhs.true114, %if.then109
  br label %if.end120

if.end120:                                        ; preds = %if.end119, %land.lhs.true, %if.else105
  br label %if.end121

if.end121:                                        ; preds = %if.end120, %if.then48
  br label %if.end122

if.end122:                                        ; preds = %if.end121, %if.then29
  br label %if.end123

if.end123:                                        ; preds = %if.end122, %if.then7
  %78 = load i32, ptr %addr.addr, align 4
  %rem = urem i32 %78, 4
  store i32 %rem, ptr %shift, align 4
  %79 = load ptr, ptr %buf.addr, align 8
  %80 = load i32, ptr %79, align 4
  %81 = load i32, ptr %shift, align 4
  %mul = mul i32 %81, 8
  %82 = load i32, ptr %size.addr, align 4
  %mul124 = mul i32 %82, 8
  %call125 = call i32 @extract32(i32 noundef %80, i32 noundef %mul, i32 noundef %mul124)
  %83 = load ptr, ptr %buf.addr, align 8
  store i32 %call125, ptr %83, align 4
  store i1 true, ptr %retval, align 1
  br label %return

return:                                           ; preds = %if.end123, %if.then
  %84 = load i1, ptr %retval, align 1
  ret i1 %84
}