; Function Attrs: nounwind sspstrong uwtable
define dso_local noundef zeroext i1 @pcie_doe_read_config(ptr noundef readonly captures(none) %doe_cap, i32 noundef %addr, i32 noundef %size, ptr noundef writeonly captures(none) %buf) local_unnamed_addr #0 {
entry:
  %offset = getelementptr inbounds nuw i8, ptr %doe_cap, i64 8
  %0 = load i16, ptr %offset, align 8
  %conv = zext i16 %0 to i32
  %add = add nuw nsw i32 %conv, 4
  %conv2 = zext i32 %addr to i64
  %cmp.not.i = icmp ule i32 %add, %addr
  %1 = zext i16 %0 to i64
  %sub.i.i = add nuw nsw i64 %1, 23
  %cmp1.i = icmp samesign uge i64 %sub.i.i, %conv2
  %narrow.i = select i1 %cmp.not.i, i1 %cmp1.i, i1 false
  br i1 %narrow.i, label %if.end, label %return

if.end:                                           ; preds = %entry
  %sub = sub nuw i32 %addr, %conv
  store i32 0, ptr %buf, align 4
  %2 = and i32 %sub, -4
  switch i32 %2, label %if.else105 [
    i32 4, label %if.then7
    i32 8, label %if.then29
    i32 12, label %if.then48
  ]

if.then7:                                         ; preds = %if.end
  %cap = getelementptr inbounds nuw i8, ptr %doe_cap, i64 10
  %3 = load i8, ptr %cap, align 2
  %4 = and i8 %3, 1
  %shl57.i = zext nneg i8 %4 to i32
  store i32 %shl57.i, ptr %buf, align 4
  %vec = getelementptr inbounds nuw i8, ptr %doe_cap, i64 12
  %5 = load i16, ptr %vec, align 2
  %6 = shl i16 %5, 1
  %7 = and i16 %6, 4094
  %and6.i = zext nneg i16 %7 to i32
  %or.i50 = or disjoint i32 %and6.i, %shl57.i
  br label %if.end123.sink.split

if.then29:                                        ; preds = %if.end
  %intr31 = getelementptr inbounds nuw i8, ptr %doe_cap, i64 15
  %8 = load i8, ptr %intr31, align 1
  %9 = shl i8 %8, 1
  %10 = and i8 %9, 2
  %and6.i57 = zext nneg i8 %10 to i32
  br label %if.end123.sink.split

if.then48:                                        ; preds = %if.end
  %status = getelementptr inbounds nuw i8, ptr %doe_cap, i64 17
  %11 = load i8, ptr %status, align 1
  %12 = and i8 %11, 1
  %shl57.i64 = zext nneg i8 %12 to i32
  store i32 %shl57.i64, ptr %buf, align 4
  %intr64 = getelementptr inbounds nuw i8, ptr %doe_cap, i64 18
  %13 = load i8, ptr %intr64, align 1
  %14 = shl i8 %13, 1
  %15 = and i8 %14, 2
  %or.i7081 = or disjoint i8 %15, %12
  %or.i70 = zext nneg i8 %or.i7081 to i32
  store i32 %or.i70, ptr %buf, align 4
  %error = getelementptr inbounds nuw i8, ptr %doe_cap, i64 19
  %16 = load i8, ptr %error, align 1
  %17 = shl i8 %16, 2
  %18 = and i8 %17, 4
  %or.i7482 = or disjoint i8 %18, %or.i7081
  %or.i74 = zext nneg i8 %or.i7482 to i32
  store i32 %or.i74, ptr %buf, align 4
  %ready = getelementptr inbounds nuw i8, ptr %doe_cap, i64 20
  %19 = load i8, ptr %ready, align 1
  %20 = and i8 %19, 1
  %shl57.i76 = zext nneg i8 %20 to i32
  %and6.i77 = shl nuw i32 %shl57.i76, 31
  %or.i78 = or disjoint i32 %and6.i77, %or.i74
  br label %if.end123.sink.split

if.else105:                                       ; preds = %if.end
  %cmp = icmp eq i32 %sub, 20
  %cmp107 = icmp eq i32 %size, 4
  %or.cond = and i1 %cmp107, %cmp
  br i1 %or.cond, label %if.then109, label %if.end123

if.then109:                                       ; preds = %if.else105
  %ready111 = getelementptr inbounds nuw i8, ptr %doe_cap, i64 20
  %21 = load i8, ptr %ready111, align 1
  %tobool112 = trunc i8 %21 to i1
  br i1 %tobool112, label %land.lhs.true114, label %if.end123

land.lhs.true114:                                 ; preds = %if.then109
  %error116 = getelementptr inbounds nuw i8, ptr %doe_cap, i64 19
  %22 = load i8, ptr %error116, align 1
  %tobool117 = trunc i8 %22 to i1
  br i1 %tobool117, label %if.end123, label %if.then118

if.then118:                                       ; preds = %land.lhs.true114
  %read_mbox = getelementptr inbounds nuw i8, ptr %doe_cap, i64 32
  %23 = load ptr, ptr %read_mbox, align 8
  %read_mbox_idx = getelementptr inbounds nuw i8, ptr %doe_cap, i64 40
  %24 = load i32, ptr %read_mbox_idx, align 8
  %idxprom = zext i32 %24 to i64
  %arrayidx = getelementptr i32, ptr %23, i64 %idxprom
  %25 = load i32, ptr %arrayidx, align 4
  br label %if.end123.sink.split

if.end123.sink.split:                             ; preds = %if.then7, %if.then48, %if.then118, %if.then29
  %and6.i57.sink = phi i32 [ %and6.i57, %if.then29 ], [ %25, %if.then118 ], [ %or.i78, %if.then48 ], [ %or.i50, %if.then7 ]
  store i32 %and6.i57.sink, ptr %buf, align 4
  br label %if.end123

if.end123:                                        ; preds = %if.end123.sink.split, %if.else105, %land.lhs.true114, %if.then109
  %26 = phi i32 [ 0, %if.else105 ], [ 0, %land.lhs.true114 ], [ 0, %if.then109 ], [ %and6.i57.sink, %if.end123.sink.split ]
  %rem = shl i32 %sub, 3
  %mul = and i32 %rem, 24
  %mul124 = shl i32 %size, 3
  %cmp1.i79 = icmp slt i32 %mul124, 1
  %sub.i = sub nuw nsw i32 32, %mul
  %cmp3.not.i = icmp samesign ugt i32 %mul124, %sub.i
  %or.cond.i = select i1 %cmp1.i79, i1 true, i1 %cmp3.not.i
  br i1 %or.cond.i, label %if.else.i, label %extract32.exit

if.else.i:                                        ; preds = %if.end123
  tail call void @__assert_fail(ptr noundef nonnull @.str.2, ptr noundef nonnull @.str.3, i32 noundef 338, ptr noundef nonnull @__PRETTY_FUNCTION__.extract32) #11
  unreachable

extract32.exit:                                   ; preds = %if.end123
  %shr.i = lshr i32 %26, %mul
  %sub4.i = sub nuw nsw i32 32, %mul124
  %shr5.i = lshr i32 -1, %sub4.i
  %and.i80 = and i32 %shr.i, %shr5.i
  store i32 %and.i80, ptr %buf, align 4
  br label %return

return:                                           ; preds = %entry, %extract32.exit
  ret i1 %narrow.i
}